#include <math.h>
#include <stdio.h>
#include <stdlib.h>
#include <string.h>
#define LEN 100
#define ASCII 100
#define MAX_N 100
#define MAX_N 100
#define L 100
#define MAX 100
#define ASC 100
#define null 0
#define Len 100
#define M 100
#define SUM 100
#define NUMBER 100
#define SIZE 100
#define N 100
#define Max 100
#define X 100
#define Y 100
#define A 100
#define MAXN 100
#define MAXSIZE 100
struct a{
	int n;
	char s[26];
}b[1000];

int main()
{
	int n,i,j,c[26]={0};
	char t;
	scanf("%d",&n);
	for (i=0;i<n;i++)
	{
		int d,m;
		scanf("%d%s",&b[i].n,b[i].s);
		d=strlen(b[i].s);
		for(m=0;m<d;m++)
			c[b[i].s[m]-65]+=1;
	}
	for(i=0;i<26;i++)
		{
			for(j=i+1;j<26;j++)
				if(c[j]>c[i])
					break;
			if(j==26)
				break;
	}
	t=65+i;
	printf("%c\n%d\n",t,c[i]);
	for(i=0;i<n;i++)
	{
		if(strchr(b[i].s,t)!=NULL)
			printf("%d\n",b[i].n);
	}
	return 0;
}