; ModuleID = '2/519.c'
source_filename = "2/519.c"
target datalayout = "e-m:e-p270:32:32-p271:32:32-p272:64:64-i64:64-f80:128-n8:16:32:64-S128"
target triple = "x86_64-pc-linux-gnu"

%struct.a = type { i32, [26 x i8] }

@.str = private unnamed_addr constant [3 x i8] c"%d\00", align 1
@.str.1 = private unnamed_addr constant [5 x i8] c"%d%s\00", align 1
@b = common dso_local global [1000 x %struct.a] zeroinitializer, align 16
@.str.2 = private unnamed_addr constant [7 x i8] c"%c\0A%d\0A\00", align 1
@.str.3 = private unnamed_addr constant [4 x i8] c"%d\0A\00", align 1

; Function Attrs: noinline nounwind uwtable
define dso_local i32 @main() #0 {
  %1 = alloca i32, align 4
  %2 = alloca i32, align 4
  %3 = alloca i32, align 4
  %4 = alloca i32, align 4
  %5 = alloca [26 x i32], align 16
  %6 = alloca i8, align 1
  %7 = alloca i32, align 4
  %8 = alloca i32, align 4
  store i32 0, i32* %1, align 4
  %9 = bitcast [26 x i32]* %5 to i8*
  call void @llvm.memset.p0i8.i64(i8* align 16 %9, i8 0, i64 104, i1 false)
  %10 = call i32 (i8*, ...) @__isoc99_scanf(i8* getelementptr inbounds ([3 x i8], [3 x i8]* @.str, i64 0, i64 0), i32* %2)
  store i32 0, i32* %3, align 4
  br label %11

11:                                               ; preds = %56, %0
  %12 = load i32, i32* %3, align 4
  %13 = load i32, i32* %2, align 4
  %14 = icmp slt i32 %12, %13
  br i1 %14, label %15, label %59

15:                                               ; preds = %11
  %16 = load i32, i32* %3, align 4
  %17 = sext i32 %16 to i64
  %18 = getelementptr inbounds [1000 x %struct.a], [1000 x %struct.a]* @b, i64 0, i64 %17
  %19 = getelementptr inbounds %struct.a, %struct.a* %18, i32 0, i32 0
  %20 = load i32, i32* %3, align 4
  %21 = sext i32 %20 to i64
  %22 = getelementptr inbounds [1000 x %struct.a], [1000 x %struct.a]* @b, i64 0, i64 %21
  %23 = getelementptr inbounds %struct.a, %struct.a* %22, i32 0, i32 1
  %24 = getelementptr inbounds [26 x i8], [26 x i8]* %23, i64 0, i64 0
  %25 = call i32 (i8*, ...) @__isoc99_scanf(i8* getelementptr inbounds ([5 x i8], [5 x i8]* @.str.1, i64 0, i64 0), i32* %19, i8* %24)
  %26 = load i32, i32* %3, align 4
  %27 = sext i32 %26 to i64
  %28 = getelementptr inbounds [1000 x %struct.a], [1000 x %struct.a]* @b, i64 0, i64 %27
  %29 = getelementptr inbounds %struct.a, %struct.a* %28, i32 0, i32 1
  %30 = getelementptr inbounds [26 x i8], [26 x i8]* %29, i64 0, i64 0
  %31 = call i64 @strlen(i8* %30) #4
  %32 = trunc i64 %31 to i32
  store i32 %32, i32* %7, align 4
  store i32 0, i32* %8, align 4
  br label %33

33:                                               ; preds = %52, %15
  %34 = load i32, i32* %8, align 4
  %35 = load i32, i32* %7, align 4
  %36 = icmp slt i32 %34, %35
  br i1 %36, label %37, label %55

37:                                               ; preds = %33
  %38 = load i32, i32* %3, align 4
  %39 = sext i32 %38 to i64
  %40 = getelementptr inbounds [1000 x %struct.a], [1000 x %struct.a]* @b, i64 0, i64 %39
  %41 = getelementptr inbounds %struct.a, %struct.a* %40, i32 0, i32 1
  %42 = load i32, i32* %8, align 4
  %43 = sext i32 %42 to i64
  %44 = getelementptr inbounds [26 x i8], [26 x i8]* %41, i64 0, i64 %43
  %45 = load i8, i8* %44, align 1
  %46 = sext i8 %45 to i32
  %47 = sub nsw i32 %46, 65
  %48 = sext i32 %47 to i64
  %49 = getelementptr inbounds [26 x i32], [26 x i32]* %5, i64 0, i64 %48
  %50 = load i32, i32* %49, align 4
  %51 = add nsw i32 %50, 1
  store i32 %51, i32* %49, align 4
  br label %52

52:                                               ; preds = %37
  %53 = load i32, i32* %8, align 4
  %54 = add nsw i32 %53, 1
  store i32 %54, i32* %8, align 4
  br label %33

55:                                               ; preds = %33
  br label %56

56:                                               ; preds = %55
  %57 = load i32, i32* %3, align 4
  %58 = add nsw i32 %57, 1
  store i32 %58, i32* %3, align 4
  br label %11

59:                                               ; preds = %11
  store i32 0, i32* %3, align 4
  br label %60

60:                                               ; preds = %89, %59
  %61 = load i32, i32* %3, align 4
  %62 = icmp slt i32 %61, 26
  br i1 %62, label %63, label %92

63:                                               ; preds = %60
  %64 = load i32, i32* %3, align 4
  %65 = add nsw i32 %64, 1
  store i32 %65, i32* %4, align 4
  br label %66

66:                                               ; preds = %81, %63
  %67 = load i32, i32* %4, align 4
  %68 = icmp slt i32 %67, 26
  br i1 %68, label %69, label %84

69:                                               ; preds = %66
  %70 = load i32, i32* %4, align 4
  %71 = sext i32 %70 to i64
  %72 = getelementptr inbounds [26 x i32], [26 x i32]* %5, i64 0, i64 %71
  %73 = load i32, i32* %72, align 4
  %74 = load i32, i32* %3, align 4
  %75 = sext i32 %74 to i64
  %76 = getelementptr inbounds [26 x i32], [26 x i32]* %5, i64 0, i64 %75
  %77 = load i32, i32* %76, align 4
  %78 = icmp sgt i32 %73, %77
  br i1 %78, label %79, label %80

79:                                               ; preds = %69
  br label %84

80:                                               ; preds = %69
  br label %81

81:                                               ; preds = %80
  %82 = load i32, i32* %4, align 4
  %83 = add nsw i32 %82, 1
  store i32 %83, i32* %4, align 4
  br label %66

84:                                               ; preds = %79, %66
  %85 = load i32, i32* %4, align 4
  %86 = icmp eq i32 %85, 26
  br i1 %86, label %87, label %88

87:                                               ; preds = %84
  br label %92

88:                                               ; preds = %84
  br label %89

89:                                               ; preds = %88
  %90 = load i32, i32* %3, align 4
  %91 = add nsw i32 %90, 1
  store i32 %91, i32* %3, align 4
  br label %60

92:                                               ; preds = %87, %60
  %93 = load i32, i32* %3, align 4
  %94 = add nsw i32 65, %93
  %95 = trunc i32 %94 to i8
  store i8 %95, i8* %6, align 1
  %96 = load i8, i8* %6, align 1
  %97 = sext i8 %96 to i32
  %98 = load i32, i32* %3, align 4
  %99 = sext i32 %98 to i64
  %100 = getelementptr inbounds [26 x i32], [26 x i32]* %5, i64 0, i64 %99
  %101 = load i32, i32* %100, align 4
  %102 = call i32 (i8*, ...) @printf(i8* getelementptr inbounds ([7 x i8], [7 x i8]* @.str.2, i64 0, i64 0), i32 %97, i32 %101)
  store i32 0, i32* %3, align 4
  br label %103

103:                                              ; preds = %125, %92
  %104 = load i32, i32* %3, align 4
  %105 = load i32, i32* %2, align 4
  %106 = icmp slt i32 %104, %105
  br i1 %106, label %107, label %128

107:                                              ; preds = %103
  %108 = load i32, i32* %3, align 4
  %109 = sext i32 %108 to i64
  %110 = getelementptr inbounds [1000 x %struct.a], [1000 x %struct.a]* @b, i64 0, i64 %109
  %111 = getelementptr inbounds %struct.a, %struct.a* %110, i32 0, i32 1
  %112 = getelementptr inbounds [26 x i8], [26 x i8]* %111, i64 0, i64 0
  %113 = load i8, i8* %6, align 1
  %114 = sext i8 %113 to i32
  %115 = call i8* @strchr(i8* %112, i32 %114) #4
  %116 = icmp ne i8* %115, null
  br i1 %116, label %117, label %124

117:                                              ; preds = %107
  %118 = load i32, i32* %3, align 4
  %119 = sext i32 %118 to i64
  %120 = getelementptr inbounds [1000 x %struct.a], [1000 x %struct.a]* @b, i64 0, i64 %119
  %121 = getelementptr inbounds %struct.a, %struct.a* %120, i32 0, i32 0
  %122 = load i32, i32* %121, align 16
  %123 = call i32 (i8*, ...) @printf(i8* getelementptr inbounds ([4 x i8], [4 x i8]* @.str.3, i64 0, i64 0), i32 %122)
  br label %124

124:                                              ; preds = %117, %107
  br label %125

125:                                              ; preds = %124
  %126 = load i32, i32* %3, align 4
  %127 = add nsw i32 %126, 1
  store i32 %127, i32* %3, align 4
  br label %103

128:                                              ; preds = %103
  ret i32 0
}

; Function Attrs: argmemonly nounwind willreturn
declare void @llvm.memset.p0i8.i64(i8* nocapture writeonly, i8, i64, i1 immarg) #1

declare dso_local i32 @__isoc99_scanf(i8*, ...) #2

; Function Attrs: nounwind readonly
declare dso_local i64 @strlen(i8*) #3

declare dso_local i32 @printf(i8*, ...) #2

; Function Attrs: nounwind readonly
declare dso_local i8* @strchr(i8*, i32) #3


!llvm.module.flags = !{!0}
!llvm.ident = !{!1}

!0 = !{i32 1, !"wchar_size", i32 4}
!1 = !{!"clang version 10.0.0-4ubuntu1 "}
